target datalayout = "e-m:e-p270:32:32-p271:32:32-p272:64:64-i64:64-i128:128-f80:128-n8:16:32:64-S128"
target triple = "x86_64-pc-linux-gnu"

%struct.rbimpl_size_mul_overflow_tag = type { i8, i64 }

; Function Attrs: inlinehint nounwind sspstrong willreturn memory(none) uwtable
define internal i64 @RB_INT2FIX(i64 noundef %0) #6 {
  %2 = alloca i64, align 8
  %3 = alloca i64, align 8
  %4 = alloca i64, align 8
  %5 = alloca i64, align 8
  %6 = alloca i64, align 8
  %7 = alloca i64, align 8
  store i64 %0, ptr %2, align 8, !tbaa !12
  call void @llvm.lifetime.start.p0(i64 8, ptr %3) #19
  %8 = load i64, ptr %2, align 8, !tbaa !12
  store i64 %8, ptr %3, align 8, !tbaa !12
  call void @llvm.lifetime.start.p0(i64 8, ptr %4) #19
  %9 = load i64, ptr %3, align 8, !tbaa !12
  %10 = shl i64 %9, 1
  %11 = add i64 %10, 1
  store i64 %11, ptr %4, align 8, !tbaa !12
  call void @llvm.lifetime.start.p0(i64 8, ptr %5) #19
  %12 = load i64, ptr %4, align 8, !tbaa !12
  store i64 %12, ptr %5, align 8, !tbaa !12
  call void @llvm.lifetime.start.p0(i64 8, ptr %6) #19
  %13 = load i64, ptr %5, align 8, !tbaa !12
  store i64 %13, ptr %6, align 8, !tbaa !12
  call void @llvm.lifetime.start.p0(i64 8, ptr %7) #19
  %14 = load i64, ptr %6, align 8, !tbaa !12
  store i64 %14, ptr %7, align 8, !tbaa !12
  %15 = load i64, ptr %7, align 8, !tbaa !12
  call void @llvm.lifetime.end.p0(i64 8, ptr %7) #19
  call void @llvm.lifetime.end.p0(i64 8, ptr %6) #19
  call void @llvm.lifetime.end.p0(i64 8, ptr %5) #19
  call void @llvm.lifetime.end.p0(i64 8, ptr %4) #19
  call void @llvm.lifetime.end.p0(i64 8, ptr %3) #19
  ret i64 %15
}

; Function Attrs: inlinehint nounwind sspstrong willreturn memory(none) uwtable
define internal { i8, i64 } @rbimpl_size_mul_overflow(i64 noundef %0, i64 noundef %1) #6 {
  %3 = alloca %struct.rbimpl_size_mul_overflow_tag, align 8
  %4 = alloca i64, align 8
  %5 = alloca i64, align 8
  store i64 %0, ptr %4, align 8, !tbaa !12
  store i64 %1, ptr %5, align 8, !tbaa !12
  call void @llvm.memset.p0.i64(ptr align 8 %3, i8 0, i64 16, i1 false)
  %6 = load i64, ptr %4, align 8, !tbaa !12
  %7 = load i64, ptr %5, align 8, !tbaa !12
  %8 = getelementptr inbounds nuw %struct.rbimpl_size_mul_overflow_tag, ptr %3, i32 0, i32 1
  %9 = call { i64, i1 } @llvm.umul.with.overflow.i64(i64 %6, i64 %7)
  %10 = extractvalue { i64, i1 } %9, 1
  %11 = extractvalue { i64, i1 } %9, 0
  store i64 %11, ptr %8, align 8
  %12 = getelementptr inbounds nuw %struct.rbimpl_size_mul_overflow_tag, ptr %3, i32 0, i32 0
  %13 = zext i1 %10 to i8
  store i8 %13, ptr %12, align 8, !tbaa !63
  %14 = load { i8, i64 }, ptr %3, align 8
  ret { i8, i64 } %14
}

; Function Attrs: inlinehint nounwind sspstrong uwtable
define internal i64 @rb_int2num_inline(i32 noundef %0) #10 {
  %2 = alloca i64, align 8
  %3 = alloca i32, align 4
  store i32 %0, ptr %3, align 4, !tbaa !14
  %4 = load i32, ptr %3, align 4, !tbaa !14
  %5 = sext i32 %4 to i64
  %6 = icmp slt i64 %5, 4611686018427387904
  br i1 %6, label %7, label %15

7:                                                ; preds = %1
  %8 = load i32, ptr %3, align 4, !tbaa !14
  %9 = sext i32 %8 to i64
  %10 = icmp sge i64 %9, -4611686018427387904
  br i1 %10, label %11, label %15

11:                                               ; preds = %7
  %12 = load i32, ptr %3, align 4, !tbaa !14
  %13 = sext i32 %12 to i64
  %14 = call i64 @RB_INT2FIX(i64 noundef %13) #22
  store i64 %14, ptr %2, align 8
  br label %19

15:                                               ; preds = %7, %1
  %16 = load i32, ptr %3, align 4, !tbaa !14
  %17 = sext i32 %16 to i64
  %18 = call i64 @rb_int2big(i64 noundef %17)
  store i64 %18, ptr %2, align 8
  br label %19

19:                                               ; preds = %15, %11
  %20 = load i64, ptr %2, align 8
  ret i64 %20
}

; Function Attrs: inlinehint nounwind sspstrong uwtable
define internal i64 @rbimpl_size_mul_or_raise(i64 noundef %0, i64 noundef %1) #10 {
  %3 = alloca i64, align 8
  %4 = alloca i64, align 8
  %5 = alloca %struct.rbimpl_size_mul_overflow_tag, align 8
  store i64 %0, ptr %3, align 8, !tbaa !12
  store i64 %1, ptr %4, align 8, !tbaa !12
  call void @llvm.lifetime.start.p0(i64 16, ptr %5) #19
  %6 = load i64, ptr %3, align 8, !tbaa !12
  %7 = load i64, ptr %4, align 8, !tbaa !12
  %8 = call { i8, i64 } @rbimpl_size_mul_overflow(i64 noundef %6, i64 noundef %7) #22
  %9 = getelementptr inbounds nuw { i8, i64 }, ptr %5, i32 0, i32 0
  %10 = extractvalue { i8, i64 } %8, 0
  store i8 %10, ptr %9, align 8
  %11 = getelementptr inbounds nuw { i8, i64 }, ptr %5, i32 0, i32 1
  %12 = extractvalue { i8, i64 } %8, 1
  store i64 %12, ptr %11, align 8
  %13 = getelementptr inbounds nuw %struct.rbimpl_size_mul_overflow_tag, ptr %5, i32 0, i32 0
  %14 = load i8, ptr %13, align 8, !tbaa !63, !range !38, !noundef !39
  %15 = trunc i8 %14 to i1
  %16 = xor i1 %15, true
  %17 = xor i1 %16, true
  %18 = xor i1 %17, true
  %19 = zext i1 %18 to i32
  %20 = sext i32 %19 to i64
  %21 = call i64 @llvm.expect.i64(i64 %20, i64 1)
  %22 = icmp ne i64 %21, 0
  br i1 %22, label %23, label %26

23:                                               ; preds = %2
  %24 = getelementptr inbounds nuw %struct.rbimpl_size_mul_overflow_tag, ptr %5, i32 0, i32 1
  %25 = load i64, ptr %24, align 8, !tbaa !65
  call void @llvm.lifetime.end.p0(i64 16, ptr %5) #19
  ret i64 %25

26:                                               ; preds = %2
  %27 = load i64, ptr %3, align 8, !tbaa !12
  %28 = load i64, ptr %4, align 8, !tbaa !12
  call void @ruby_malloc_size_overflow(i64 noundef %27, i64 noundef %28) #20
  unreachable
}

; Function Attrs: nounwind sspstrong uwtable
define internal i64 @pkey_gen_cb_yield(i64 noundef %0) #0 {
  %2 = alloca i64, align 8
  %3 = alloca ptr, align 8
  %4 = alloca i32, align 4
  %5 = alloca i32, align 4
  %6 = alloca ptr, align 8
  store i64 %0, ptr %2, align 8, !tbaa !12
  call void @llvm.lifetime.start.p0(i64 8, ptr %3) #19
  %7 = load i64, ptr %2, align 8, !tbaa !12
  %8 = inttoptr i64 %7 to ptr
  store ptr %8, ptr %3, align 8, !tbaa !50
  call void @llvm.lifetime.start.p0(i64 4, ptr %4) #19
  call void @llvm.lifetime.start.p0(i64 4, ptr %5) #19
  call void @llvm.lifetime.start.p0(i64 8, ptr %6) #19
  %9 = load ptr, ptr %3, align 8, !tbaa !50
  %10 = call i32 @EVP_PKEY_CTX_get_keygen_info(ptr noundef %9, i32 noundef -1)
  store i32 %10, ptr %5, align 4, !tbaa !14
  %11 = load i32, ptr %5, align 4, !tbaa !14
  %12 = sext i32 %11 to i64
  %13 = call i64 @rbimpl_size_mul_or_raise(i64 noundef 8, i64 noundef %12)
  %14 = alloca i8, i64 %13, align 16
  store ptr %14, ptr %6, align 8, !tbaa !29
  store i32 0, ptr %4, align 4, !tbaa !14
  br label %15

15:                                               ; preds = %28, %1
  %16 = load i32, ptr %4, align 4, !tbaa !14
  %17 = load i32, ptr %5, align 4, !tbaa !14
  %18 = icmp slt i32 %16, %17
  br i1 %18, label %19, label %31

19:                                               ; preds = %15
  %20 = load ptr, ptr %3, align 8, !tbaa !50
  %21 = load i32, ptr %4, align 4, !tbaa !14
  %22 = call i32 @EVP_PKEY_CTX_get_keygen_info(ptr noundef %20, i32 noundef %21)
  %23 = call i64 @rb_int2num_inline(i32 noundef %22)
  %24 = load ptr, ptr %6, align 8, !tbaa !29
  %25 = load i32, ptr %4, align 4, !tbaa !14
  %26 = sext i32 %25 to i64
  %27 = getelementptr inbounds i64, ptr %24, i64 %26
  store i64 %23, ptr %27, align 8, !tbaa !12
  br label %28

28:                                               ; preds = %19
  %29 = load i32, ptr %4, align 4, !tbaa !14
  %30 = add nsw i32 %29, 1
  store i32 %30, ptr %4, align 4, !tbaa !14
  br label %15, !llvm.loop !62

31:                                               ; preds = %15
  %32 = load i32, ptr %5, align 4, !tbaa !14
  %33 = load ptr, ptr %6, align 8, !tbaa !29
  %34 = call i64 @rb_yield_values2(i32 noundef %32, ptr noundef %33)
  call void @llvm.lifetime.end.p0(i64 8, ptr %6) #19
  call void @llvm.lifetime.end.p0(i64 4, ptr %5) #19
  call void @llvm.lifetime.end.p0(i64 4, ptr %4) #19
  call void @llvm.lifetime.end.p0(i64 8, ptr %3) #19
  ret i64 %34
}