; Function Attrs: nounwind sspstrong uwtable
define internal i64 @pkey_gen_cb_yield(i64 noundef %0) #0 {
  %2 = inttoptr i64 %0 to ptr
  %3 = tail call i32 @EVP_PKEY_CTX_get_keygen_info(ptr noundef %2, i32 noundef -1) #8
  %4 = sext i32 %3 to i64
  %5 = icmp slt i32 %3, 0
  br i1 %5, label %6, label %rbimpl_size_mul_or_raise.exit, !prof !119

6:                                                ; preds = %1
  tail call void @ruby_malloc_size_overflow(i64 noundef 8, i64 noundef range(i64 -2147483648, 2147483648) %4) #9
  unreachable

rbimpl_size_mul_or_raise.exit:                    ; preds = %1
  %7 = shl nuw nsw i64 %4, 3
  %8 = alloca i8, i64 %7, align 16
  %.not = icmp eq i32 %3, 0
  br i1 %.not, label %._crit_edge, label %.lr.ph.preheader

.lr.ph.preheader:                                 ; preds = %rbimpl_size_mul_or_raise.exit
  %wide.trip.count = zext nneg i32 %3 to i64
  br label %.lr.ph

.lr.ph:                                           ; preds = %.lr.ph.preheader, %.lr.ph
  %indvars.iv = phi i64 [ 0, %.lr.ph.preheader ], [ %indvars.iv.next, %.lr.ph ]
  %9 = trunc nuw nsw i64 %indvars.iv to i32
  %10 = tail call i32 @EVP_PKEY_CTX_get_keygen_info(ptr noundef %2, i32 noundef %9) #8
  %11 = sext i32 %10 to i64
  %12 = shl nsw i64 %11, 1
  %13 = or disjoint i64 %12, 1
  %14 = getelementptr inbounds nuw i64, ptr %8, i64 %indvars.iv
  store i64 %13, ptr %14, align 8, !tbaa !10
  %indvars.iv.next = add nuw nsw i64 %indvars.iv, 1
  %exitcond.not = icmp eq i64 %indvars.iv.next, %wide.trip.count
  br i1 %exitcond.not, label %._crit_edge, label %.lr.ph, !llvm.loop !120

._crit_edge:                                      ; preds = %.lr.ph, %rbimpl_size_mul_or_raise.exit
  %15 = call i64 @rb_yield_values2(i32 noundef %3, ptr noundef nonnull %8) #8
  ret i64 %15
}